target datalayout = "e-m:e-p270:32:32-p271:32:32-p272:64:64-i64:64-i128:128-f80:128-n8:16:32:64-S128"
target triple = "x86_64-pc-linux-gnu"

@.str.1 = private unnamed_addr constant [34 x i8] c"../openssl/crypto/conf/conf_lib.c\00", align 1
@__func__.NCONF_get_string = private unnamed_addr constant [17 x i8] c"NCONF_get_string\00", align 1
@.str.2 = private unnamed_addr constant [17 x i8] c"group=%s name=%s\00", align 1

; Function Attrs: nounwind uwtable
define ptr @NCONF_get_string(ptr noundef %0, ptr noundef %1, ptr noundef %2) #0 {
  %4 = alloca ptr, align 8
  %5 = alloca ptr, align 8
  %6 = alloca ptr, align 8
  %7 = alloca ptr, align 8
  %8 = alloca ptr, align 8
  %9 = alloca i32, align 4
  store ptr %0, ptr %5, align 8, !tbaa !3
  store ptr %1, ptr %6, align 8, !tbaa !19
  store ptr %2, ptr %7, align 8, !tbaa !19
  call void @llvm.lifetime.start.p0(i64 8, ptr %8) #8
  %10 = load ptr, ptr %5, align 8, !tbaa !3
  %11 = load ptr, ptr %6, align 8, !tbaa !19
  %12 = load ptr, ptr %7, align 8, !tbaa !19
  %13 = call ptr @_CONF_get_string(ptr noundef %10, ptr noundef %11, ptr noundef %12)
  store ptr %13, ptr %8, align 8, !tbaa !19
  %14 = load ptr, ptr %8, align 8, !tbaa !19
  %15 = icmp ne ptr %14, null
  br i1 %15, label %16, label %18

16:                                               ; preds = %3
  %17 = load ptr, ptr %8, align 8, !tbaa !19
  store ptr %17, ptr %4, align 8
  store i32 1, ptr %9, align 4
  br label %25

18:                                               ; preds = %3
  %19 = load ptr, ptr %5, align 8, !tbaa !3
  %20 = icmp eq ptr %19, null
  br i1 %20, label %21, label %22

21:                                               ; preds = %18
  call void @ERR_new()
  call void @ERR_set_debug(ptr noundef @.str.1, i32 noundef 313, ptr noundef @__func__.NCONF_get_string)
  call void (i32, i32, ptr, ...) @ERR_set_error(i32 noundef 14, i32 noundef 106, ptr noundef null)
  store ptr null, ptr %4, align 8
  store i32 1, ptr %9, align 4
  br label %25

22:                                               ; preds = %18
  call void @ERR_new()
  call void @ERR_set_debug(ptr noundef @.str.1, i32 noundef 316, ptr noundef @__func__.NCONF_get_string)
  %23 = load ptr, ptr %6, align 8, !tbaa !19
  %24 = load ptr, ptr %7, align 8, !tbaa !19
  call void (i32, i32, ptr, ...) @ERR_set_error(i32 noundef 14, i32 noundef 108, ptr noundef @.str.2, ptr noundef %23, ptr noundef %24)
  store ptr null, ptr %4, align 8
  store i32 1, ptr %9, align 4
  br label %25

25:                                               ; preds = %22, %21, %16
  call void @llvm.lifetime.end.p0(i64 8, ptr %8) #8
  %26 = load ptr, ptr %4, align 8
  ret ptr %26
}