; Function Attrs: nounwind uwtable
define ptr @NCONF_get_string(ptr noundef %0, ptr noundef %1, ptr noundef %2) local_unnamed_addr #0 {
  %4 = tail call ptr @_CONF_get_string(ptr noundef %0, ptr noundef %1, ptr noundef %2) #15
  %.not = icmp eq ptr %4, null
  br i1 %.not, label %5, label %9

5:                                                ; preds = %3
  %6 = icmp eq ptr %0, null
  tail call void @ERR_new() #15
  br i1 %6, label %7, label %8

7:                                                ; preds = %5
  tail call void @ERR_set_debug(ptr noundef nonnull @.str.1, i32 noundef 313, ptr noundef nonnull @__func__.NCONF_get_string) #15
  tail call void (i32, i32, ptr, ...) @ERR_set_error(i32 noundef 14, i32 noundef 106, ptr noundef null) #15
  br label %9

8:                                                ; preds = %5
  tail call void @ERR_set_debug(ptr noundef nonnull @.str.1, i32 noundef 316, ptr noundef nonnull @__func__.NCONF_get_string) #15
  tail call void (i32, i32, ptr, ...) @ERR_set_error(i32 noundef 14, i32 noundef 108, ptr noundef nonnull @.str.2, ptr noundef %1, ptr noundef %2) #15
  br label %9

9:                                                ; preds = %3, %8, %7
  ret ptr %4
}